target datalayout = "e-m:e-p270:32:32-p271:32:32-p272:64:64-i64:64-i128:128-f80:128-n8:16:32:64-S128"
target triple = "x86_64-pc-linux-gnu"

%"struct.cv::detail::CheckContext" = type { ptr, ptr, i32, i32, ptr, ptr, ptr }
%"class.cv::utils::trace::details::Region" = type <{ ptr, i32, [4 x i8] }>
%"class.cv::Point_" = type { i32, i32 }

@_ZZN2cv9minMaxLocERKNS_11_InputArrayEPdS3_PNS_6Point_IiEES6_S2_E16__cv_check__1527 = internal constant %"struct.cv::detail::CheckContext" { ptr @.str.6, ptr @.str.1, i32 1527, i32 3, ptr @.str.7, ptr @.str.8, ptr @.str.9 }, align 8

; Function Attrs: inlinehint mustprogress nounwind uwtable
define linkonce_odr void @_ZSt4swapIiENSt9enable_ifIXsr6__and_ISt6__not_ISt15__is_tuple_likeIT_EESt21is_move_constructibleIS3_ESt18is_move_assignableIS3_EEE5valueEvE4typeERS3_SC_(ptr noundef nonnull align 4 dereferenceable(4) %0, ptr noundef nonnull align 4 dereferenceable(4) %1) #6 comdat {
  %3 = alloca ptr, align 8
  %4 = alloca ptr, align 8
  %5 = alloca i32, align 4
  store ptr %0, ptr %3, align 8, !tbaa !10
  store ptr %1, ptr %4, align 8, !tbaa !10
  call void @llvm.lifetime.start.p0(i64 4, ptr %5) #15
  %6 = load ptr, ptr %3, align 8, !tbaa !10
  %7 = load i32, ptr %6, align 4, !tbaa !12
  store i32 %7, ptr %5, align 4, !tbaa !12
  %8 = load ptr, ptr %4, align 8, !tbaa !10
  %9 = load i32, ptr %8, align 4, !tbaa !12
  %10 = load ptr, ptr %3, align 8, !tbaa !10
  store i32 %9, ptr %10, align 4, !tbaa !12
  %11 = load i32, ptr %5, align 4, !tbaa !12
  %12 = load ptr, ptr %4, align 8, !tbaa !10
  store i32 %11, ptr %12, align 4, !tbaa !12
  call void @llvm.lifetime.end.p0(i64 4, ptr %5) #15
  ret void
}

; Function Attrs: mustprogress uwtable
define void @_ZN2cv9minMaxLocERKNS_11_InputArrayEPdS3_PNS_6Point_IiEES6_S2_(ptr noundef nonnull align 8 dereferenceable(24) %0, ptr noundef %1, ptr noundef %2, ptr noundef %3, ptr noundef %4, ptr noundef nonnull align 8 dereferenceable(24) %5) #0 personality ptr @__gxx_personality_v0 {
  %7 = alloca ptr, align 8
  %8 = alloca ptr, align 8
  %9 = alloca ptr, align 8
  %10 = alloca ptr, align 8
  %11 = alloca ptr, align 8
  %12 = alloca ptr, align 8
  %13 = alloca %"class.cv::utils::trace::details::Region", align 8
  %14 = alloca i32, align 4
  %15 = alloca ptr, align 8
  %16 = alloca i32, align 4
  store ptr %0, ptr %7, align 8, !tbaa !3
  store ptr %1, ptr %8, align 8, !tbaa !8
  store ptr %2, ptr %9, align 8, !tbaa !8
  store ptr %3, ptr %10, align 8, !tbaa !60
  store ptr %4, ptr %11, align 8, !tbaa !60
  store ptr %5, ptr %12, align 8, !tbaa !3
  call void @llvm.lifetime.start.p0(i64 16, ptr %13) #15
  call void @_ZN2cv5utils5trace7details6RegionC1ERKNS3_21LocationStaticStorageE(ptr noundef nonnull align 8 dereferenceable(12) %13, ptr noundef nonnull align 8 dereferenceable(32) @_ZZN2cv9minMaxLocERKNS_11_InputArrayEPdS3_PNS_6Point_IiEES6_S2_E26__cv_trace_location_fn1524)
  call void @llvm.lifetime.start.p0(i64 4, ptr %14) #15
  %17 = load ptr, ptr %7, align 8, !tbaa !3
  %18 = invoke noundef i32 @_ZNK2cv11_InputArray4dimsEi(ptr noundef nonnull align 8 dereferenceable(24) %17, i32 noundef -1)
          to label %19 unwind label %24

19:                                               ; preds = %6
  store i32 %18, ptr %14, align 4, !tbaa !12
  br label %20

20:                                               ; preds = %19
  %21 = load i32, ptr %14, align 4, !tbaa !12
  %22 = icmp sle i32 %21, 2
  br i1 %22, label %23, label %28

23:                                               ; preds = %20
  br label %31

24:                                               ; preds = %33, %28, %6
  %25 = landingpad { ptr, i32 }
          cleanup
  %26 = extractvalue { ptr, i32 } %25, 0
  store ptr %26, ptr %15, align 8
  %27 = extractvalue { ptr, i32 } %25, 1
  store i32 %27, ptr %16, align 4
  call void @llvm.lifetime.end.p0(i64 4, ptr %14) #15
  call void @_ZN2cv5utils5trace7details6RegionD2Ev(ptr noundef nonnull align 8 dereferenceable(12) %13) #15
  call void @llvm.lifetime.end.p0(i64 16, ptr %13) #15
  br label %71

28:                                               ; preds = %20
  %29 = load i32, ptr %14, align 4, !tbaa !12
  invoke void @_ZN2cv6detail17check_failed_autoEiiRKNS0_12CheckContextE(i32 noundef %29, i32 noundef 2, ptr noundef nonnull align 8 dereferenceable(48) @_ZZN2cv9minMaxLocERKNS_11_InputArrayEPdS3_PNS_6Point_IiEES6_S2_E16__cv_check__1527) #16
          to label %30 unwind label %24

30:                                               ; preds = %28
  unreachable

31:                                               ; preds = %23
  br label %32

32:                                               ; preds = %31
  br label %33

33:                                               ; preds = %32
  %34 = load ptr, ptr %7, align 8, !tbaa !3
  %35 = load ptr, ptr %8, align 8, !tbaa !8
  %36 = load ptr, ptr %9, align 8, !tbaa !8
  %37 = load ptr, ptr %10, align 8, !tbaa !60
  %38 = load ptr, ptr %11, align 8, !tbaa !60
  %39 = load ptr, ptr %12, align 8, !tbaa !3
  invoke void @_ZN2cv9minMaxIdxERKNS_11_InputArrayEPdS3_PiS4_S2_(ptr noundef nonnull align 8 dereferenceable(24) %34, ptr noundef %35, ptr noundef %36, ptr noundef %37, ptr noundef %38, ptr noundef nonnull align 8 dereferenceable(24) %39)
          to label %40 unwind label %24

40:                                               ; preds = %33
  %41 = load ptr, ptr %10, align 8, !tbaa !60
  %42 = icmp ne ptr %41, null
  br i1 %42, label %43, label %55

43:                                               ; preds = %40
  %44 = load i32, ptr %14, align 4, !tbaa !12
  %45 = icmp eq i32 %44, 2
  br i1 %45, label %46, label %51

46:                                               ; preds = %43
  %47 = load ptr, ptr %10, align 8, !tbaa !60
  %48 = getelementptr inbounds nuw %"class.cv::Point_", ptr %47, i32 0, i32 0
  %49 = load ptr, ptr %10, align 8, !tbaa !60
  %50 = getelementptr inbounds nuw %"class.cv::Point_", ptr %49, i32 0, i32 1
  call void @_ZSt4swapIiENSt9enable_ifIXsr6__and_ISt6__not_ISt15__is_tuple_likeIT_EESt21is_move_constructibleIS3_ESt18is_move_assignableIS3_EEE5valueEvE4typeERS3_SC_(ptr noundef nonnull align 4 dereferenceable(4) %48, ptr noundef nonnull align 4 dereferenceable(4) %50) #15
  br label %54

51:                                               ; preds = %43
  %52 = load ptr, ptr %10, align 8, !tbaa !60
  %53 = getelementptr inbounds nuw %"class.cv::Point_", ptr %52, i32 0, i32 1
  store i32 0, ptr %53, align 4, !tbaa !62
  br label %54

54:                                               ; preds = %51, %46
  br label %55

55:                                               ; preds = %54, %40
  %56 = load ptr, ptr %11, align 8, !tbaa !60
  %57 = icmp ne ptr %56, null
  br i1 %57, label %58, label %70

58:                                               ; preds = %55
  %59 = load i32, ptr %14, align 4, !tbaa !12
  %60 = icmp eq i32 %59, 2
  br i1 %60, label %61, label %66

61:                                               ; preds = %58
  %62 = load ptr, ptr %11, align 8, !tbaa !60
  %63 = getelementptr inbounds nuw %"class.cv::Point_", ptr %62, i32 0, i32 0
  %64 = load ptr, ptr %11, align 8, !tbaa !60
  %65 = getelementptr inbounds nuw %"class.cv::Point_", ptr %64, i32 0, i32 1
  call void @_ZSt4swapIiENSt9enable_ifIXsr6__and_ISt6__not_ISt15__is_tuple_likeIT_EESt21is_move_constructibleIS3_ESt18is_move_assignableIS3_EEE5valueEvE4typeERS3_SC_(ptr noundef nonnull align 4 dereferenceable(4) %63, ptr noundef nonnull align 4 dereferenceable(4) %65) #15
  br label %69

66:                                               ; preds = %58
  %67 = load ptr, ptr %11, align 8, !tbaa !60
  %68 = getelementptr inbounds nuw %"class.cv::Point_", ptr %67, i32 0, i32 1
  store i32 0, ptr %68, align 4, !tbaa !62
  br label %69

69:                                               ; preds = %66, %61
  br label %70

70:                                               ; preds = %69, %55
  call void @llvm.lifetime.end.p0(i64 4, ptr %14) #15
  call void @_ZN2cv5utils5trace7details6RegionD2Ev(ptr noundef nonnull align 8 dereferenceable(12) %13) #15
  call void @llvm.lifetime.end.p0(i64 16, ptr %13) #15
  ret void

71:                                               ; preds = %24
  %72 = load ptr, ptr %15, align 8
  %73 = load i32, ptr %16, align 4
  %74 = insertvalue { ptr, i32 } poison, ptr %72, 0
  %75 = insertvalue { ptr, i32 } %74, i32 %73, 1
  resume { ptr, i32 } %75
}