; Function Attrs: mustprogress uwtable
define void @_ZN2cv9minMaxLocERKNS_11_InputArrayEPdS3_PNS_6Point_IiEES6_S2_(ptr noundef nonnull align 8 dereferenceable(24) %0, ptr noundef %1, ptr noundef %2, ptr noundef %3, ptr noundef %4, ptr noundef nonnull align 8 dereferenceable(24) %5) local_unnamed_addr #0 personality ptr @__gxx_personality_v0 {
  %7 = alloca %"class.cv::utils::trace::details::Region", align 8
  call void @llvm.lifetime.start.p0(i64 16, ptr nonnull %7) #15
  call void @_ZN2cv5utils5trace7details6RegionC1ERKNS3_21LocationStaticStorageE(ptr noundef nonnull align 8 dereferenceable(12) %7, ptr noundef nonnull align 8 dereferenceable(32) @_ZZN2cv9minMaxLocERKNS_11_InputArrayEPdS3_PNS_6Point_IiEES6_S2_E26__cv_trace_location_fn1524)
  %8 = invoke noundef i32 @_ZNK2cv11_InputArray4dimsEi(ptr noundef nonnull align 8 dereferenceable(24) %0, i32 noundef -1)
          to label %9 unwind label %11

9:                                                ; preds = %6
  %10 = icmp slt i32 %8, 3
  br i1 %10, label %15, label %13

11:                                               ; preds = %15, %13, %6
  %12 = landingpad { ptr, i32 }
          cleanup
  call void @_ZN2cv5utils5trace7details6RegionD2Ev(ptr noundef nonnull align 8 dereferenceable(12) %7) #15
  call void @llvm.lifetime.end.p0(i64 16, ptr nonnull %7) #15
  resume { ptr, i32 } %12

13:                                               ; preds = %9
  invoke void @_ZN2cv6detail17check_failed_autoEiiRKNS0_12CheckContextE(i32 noundef %8, i32 noundef 2, ptr noundef nonnull align 8 dereferenceable(48) @_ZZN2cv9minMaxLocERKNS_11_InputArrayEPdS3_PNS_6Point_IiEES6_S2_E16__cv_check__1527) #16
          to label %14 unwind label %11

14:                                               ; preds = %13
  unreachable

15:                                               ; preds = %9
  invoke void @_ZN2cv9minMaxIdxERKNS_11_InputArrayEPdS3_PiS4_S2_(ptr noundef nonnull align 8 dereferenceable(24) %0, ptr noundef %1, ptr noundef %2, ptr noundef %3, ptr noundef %4, ptr noundef nonnull align 8 dereferenceable(24) %5)
          to label %16 unwind label %11

16:                                               ; preds = %15
  %.not = icmp eq ptr %3, null
  br i1 %.not, label %21, label %17

17:                                               ; preds = %16
  %18 = icmp eq i32 %8, 2
  %19 = getelementptr inbounds nuw i8, ptr %3, i64 4
  br i1 %18, label %.thread, label %20

20:                                               ; preds = %17
  store i32 0, ptr %19, align 4, !tbaa !53
  br label %21

21:                                               ; preds = %20, %16
  %.not22 = icmp eq ptr %4, null
  br i1 %.not22, label %31, label %24

.thread:                                          ; preds = %17
  %22 = load i32, ptr %3, align 4, !tbaa !35
  %23 = load i32, ptr %19, align 4, !tbaa !35
  store i32 %23, ptr %3, align 4, !tbaa !35
  store i32 %22, ptr %19, align 4, !tbaa !35
  %.not2223 = icmp eq ptr %4, null
  br i1 %.not2223, label %31, label %.thread24

24:                                               ; preds = %21
  %25 = icmp eq i32 %8, 2
  br i1 %25, label %.thread24, label %29

.thread24:                                        ; preds = %.thread, %24
  %26 = getelementptr inbounds nuw i8, ptr %4, i64 4
  %27 = load i32, ptr %4, align 4, !tbaa !35
  %28 = load i32, ptr %26, align 4, !tbaa !35
  store i32 %28, ptr %4, align 4, !tbaa !35
  store i32 %27, ptr %26, align 4, !tbaa !35
  br label %31

29:                                               ; preds = %24
  %30 = getelementptr inbounds nuw i8, ptr %4, i64 4
  store i32 0, ptr %30, align 4, !tbaa !53
  br label %31

31:                                               ; preds = %.thread, %.thread24, %29, %21
  %32 = getelementptr inbounds nuw i8, ptr %7, i64 8
  %33 = load i32, ptr %32, align 8, !tbaa !50
  %.not.i = icmp eq i32 %33, 0
  br i1 %.not.i, label %_ZN2cv5utils5trace7details6RegionD2Ev.exit, label %34

34:                                               ; preds = %31
  invoke void @_ZN2cv5utils5trace7details6Region7destroyEv(ptr noundef nonnull align 8 dereferenceable(12) %7)
          to label %_ZN2cv5utils5trace7details6RegionD2Ev.exit unwind label %35

35:                                               ; preds = %34
  %36 = landingpad { ptr, i32 }
          catch ptr null
  %37 = extractvalue { ptr, i32 } %36, 0
  call void @__clang_call_terminate(ptr %37) #18
  unreachable

_ZN2cv5utils5trace7details6RegionD2Ev.exit:       ; preds = %31, %34
  call void @llvm.lifetime.end.p0(i64 16, ptr nonnull %7) #15
  ret void
}